target datalayout = "e-m:e-p270:32:32-p271:32:32-p272:64:64-i64:64-i128:128-f80:128-n8:16:32:64-S128"
target triple = "x86_64-pc-linux-gnu"

%"class.std::vector" = type { %"struct.std::_Vector_base" }
%"struct.std::_Vector_base" = type { %"struct.std::_Vector_base<unsigned long, std::allocator<unsigned long>>::_Vector_impl" }
%"struct.std::_Vector_base<unsigned long, std::allocator<unsigned long>>::_Vector_impl" = type { %"struct.std::_Vector_base<unsigned long, std::allocator<unsigned long>>::_Vector_impl_data" }
%"struct.std::_Vector_base<unsigned long, std::allocator<unsigned long>>::_Vector_impl_data" = type { ptr, ptr, ptr }
%"struct.cxx20::span.53" = type { %"class.cxx20::detail::span_storage.54" }
%"class.cxx20::detail::span_storage.54" = type { ptr, i64 }
%"class.WasmEdge::AST::Module" = type <{ %"class.std::vector.55", %"class.std::vector.55", %"class.std::vector.60", %"class.WasmEdge::AST::TypeSection", %"class.WasmEdge::AST::ImportSection", %"class.WasmEdge::AST::FunctionSection", %"class.WasmEdge::AST::TableSection", %"class.WasmEdge::AST::MemorySection", %"class.WasmEdge::AST::GlobalSection", %"class.WasmEdge::AST::ExportSection", %"class.WasmEdge::AST::StartSection", %"class.WasmEdge::AST::ElementSection", %"class.WasmEdge::AST::CodeSection", %"class.WasmEdge::AST::DataSection", %"class.WasmEdge::AST::DataCountSection", %"class.WasmEdge::AST::TagSection", %"class.WasmEdge::AST::AOTSection", %"class.WasmEdge::Symbol", i8, [7 x i8] }>
%"class.std::vector.55" = type { %"struct.std::_Vector_base.56" }
%"struct.std::_Vector_base.56" = type { %"struct.std::_Vector_base<unsigned char, std::allocator<unsigned char>>::_Vector_impl" }
%"struct.std::_Vector_base<unsigned char, std::allocator<unsigned char>>::_Vector_impl" = type { %"struct.std::_Vector_base<unsigned char, std::allocator<unsigned char>>::_Vector_impl_data" }
%"struct.std::_Vector_base<unsigned char, std::allocator<unsigned char>>::_Vector_impl_data" = type { ptr, ptr, ptr }
%"class.std::vector.60" = type { %"struct.std::_Vector_base.61" }
%"struct.std::_Vector_base.61" = type { %"struct.std::_Vector_base<WasmEdge::AST::CustomSection, std::allocator<WasmEdge::AST::CustomSection>>::_Vector_impl" }
%"struct.std::_Vector_base<WasmEdge::AST::CustomSection, std::allocator<WasmEdge::AST::CustomSection>>::_Vector_impl" = type { %"struct.std::_Vector_base<WasmEdge::AST::CustomSection, std::allocator<WasmEdge::AST::CustomSection>>::_Vector_impl_data" }
%"struct.std::_Vector_base<WasmEdge::AST::CustomSection, std::allocator<WasmEdge::AST::CustomSection>>::_Vector_impl_data" = type { ptr, ptr, ptr }
%"class.WasmEdge::AST::TypeSection" = type { %"class.WasmEdge::AST::Section", %"class.std::vector.65" }
%"class.WasmEdge::AST::Section" = type { i64, i64 }
%"class.std::vector.65" = type { %"struct.std::_Vector_base.66" }
%"struct.std::_Vector_base.66" = type { %"struct.std::_Vector_base<WasmEdge::AST::SubType, std::allocator<WasmEdge::AST::SubType>>::_Vector_impl" }
%"struct.std::_Vector_base<WasmEdge::AST::SubType, std::allocator<WasmEdge::AST::SubType>>::_Vector_impl" = type { %"struct.std::_Vector_base<WasmEdge::AST::SubType, std::allocator<WasmEdge::AST::SubType>>::_Vector_impl_data" }
%"struct.std::_Vector_base<WasmEdge::AST::SubType, std::allocator<WasmEdge::AST::SubType>>::_Vector_impl_data" = type { ptr, ptr, ptr }
%"class.WasmEdge::AST::ImportSection" = type { %"class.WasmEdge::AST::Section", %"class.std::vector.70" }
%"class.std::vector.70" = type { %"struct.std::_Vector_base.71" }
%"struct.std::_Vector_base.71" = type { %"struct.std::_Vector_base<WasmEdge::AST::ImportDesc, std::allocator<WasmEdge::AST::ImportDesc>>::_Vector_impl" }
%"struct.std::_Vector_base<WasmEdge::AST::ImportDesc, std::allocator<WasmEdge::AST::ImportDesc>>::_Vector_impl" = type { %"struct.std::_Vector_base<WasmEdge::AST::ImportDesc, std::allocator<WasmEdge::AST::ImportDesc>>::_Vector_impl_data" }
%"struct.std::_Vector_base<WasmEdge::AST::ImportDesc, std::allocator<WasmEdge::AST::ImportDesc>>::_Vector_impl_data" = type { ptr, ptr, ptr }
%"class.WasmEdge::AST::FunctionSection" = type { %"class.WasmEdge::AST::Section", %"class.std::vector.75" }
%"class.std::vector.75" = type { %"struct.std::_Vector_base.76" }
%"struct.std::_Vector_base.76" = type { %"struct.std::_Vector_base<unsigned int, std::allocator<unsigned int>>::_Vector_impl" }
%"struct.std::_Vector_base<unsigned int, std::allocator<unsigned int>>::_Vector_impl" = type { %"struct.std::_Vector_base<unsigned int, std::allocator<unsigned int>>::_Vector_impl_data" }
%"struct.std::_Vector_base<unsigned int, std::allocator<unsigned int>>::_Vector_impl_data" = type { ptr, ptr, ptr }
%"class.WasmEdge::AST::TableSection" = type { %"class.WasmEdge::AST::Section", %"class.std::vector.80" }
%"class.std::vector.80" = type { %"struct.std::_Vector_base.81" }
%"struct.std::_Vector_base.81" = type { %"struct.std::_Vector_base<WasmEdge::AST::TableSegment, std::allocator<WasmEdge::AST::TableSegment>>::_Vector_impl" }
%"struct.std::_Vector_base<WasmEdge::AST::TableSegment, std::allocator<WasmEdge::AST::TableSegment>>::_Vector_impl" = type { %"struct.std::_Vector_base<WasmEdge::AST::TableSegment, std::allocator<WasmEdge::AST::TableSegment>>::_Vector_impl_data" }
%"struct.std::_Vector_base<WasmEdge::AST::TableSegment, std::allocator<WasmEdge::AST::TableSegment>>::_Vector_impl_data" = type { ptr, ptr, ptr }
%"class.WasmEdge::AST::MemorySection" = type { %"class.WasmEdge::AST::Section", %"class.std::vector.85" }
%"class.std::vector.85" = type { %"struct.std::_Vector_base.86" }
%"struct.std::_Vector_base.86" = type { %"struct.std::_Vector_base<WasmEdge::AST::MemoryType, std::allocator<WasmEdge::AST::MemoryType>>::_Vector_impl" }
%"struct.std::_Vector_base<WasmEdge::AST::MemoryType, std::allocator<WasmEdge::AST::MemoryType>>::_Vector_impl" = type { %"struct.std::_Vector_base<WasmEdge::AST::MemoryType, std::allocator<WasmEdge::AST::MemoryType>>::_Vector_impl_data" }
%"struct.std::_Vector_base<WasmEdge::AST::MemoryType, std::allocator<WasmEdge::AST::MemoryType>>::_Vector_impl_data" = type { ptr, ptr, ptr }
%"class.WasmEdge::AST::GlobalSection" = type { %"class.WasmEdge::AST::Section", %"class.std::vector.90" }
%"class.std::vector.90" = type { %"struct.std::_Vector_base.91" }
%"struct.std::_Vector_base.91" = type { %"struct.std::_Vector_base<WasmEdge::AST::GlobalSegment, std::allocator<WasmEdge::AST::GlobalSegment>>::_Vector_impl" }
%"struct.std::_Vector_base<WasmEdge::AST::GlobalSegment, std::allocator<WasmEdge::AST::GlobalSegment>>::_Vector_impl" = type { %"struct.std::_Vector_base<WasmEdge::AST::GlobalSegment, std::allocator<WasmEdge::AST::GlobalSegment>>::_Vector_impl_data" }
%"struct.std::_Vector_base<WasmEdge::AST::GlobalSegment, std::allocator<WasmEdge::AST::GlobalSegment>>::_Vector_impl_data" = type { ptr, ptr, ptr }
%"class.WasmEdge::AST::ExportSection" = type { %"class.WasmEdge::AST::Section", %"class.std::vector.95" }
%"class.std::vector.95" = type { %"struct.std::_Vector_base.96" }
%"struct.std::_Vector_base.96" = type { %"struct.std::_Vector_base<WasmEdge::AST::ExportDesc, std::allocator<WasmEdge::AST::ExportDesc>>::_Vector_impl" }
%"struct.std::_Vector_base<WasmEdge::AST::ExportDesc, std::allocator<WasmEdge::AST::ExportDesc>>::_Vector_impl" = type { %"struct.std::_Vector_base<WasmEdge::AST::ExportDesc, std::allocator<WasmEdge::AST::ExportDesc>>::_Vector_impl_data" }
%"struct.std::_Vector_base<WasmEdge::AST::ExportDesc, std::allocator<WasmEdge::AST::ExportDesc>>::_Vector_impl_data" = type { ptr, ptr, ptr }
%"class.WasmEdge::AST::StartSection" = type { %"class.WasmEdge::AST::Section", %"class.std::optional" }
%"class.std::optional" = type { %"struct.std::_Optional_base" }
%"struct.std::_Optional_base" = type { %"struct.std::_Optional_payload" }
%"struct.std::_Optional_payload" = type { %"struct.std::_Optional_payload_base.base", [3 x i8] }
%"struct.std::_Optional_payload_base.base" = type <{ %"union.std::_Optional_payload_base<unsigned int>::_Storage", i8 }>
%"union.std::_Optional_payload_base<unsigned int>::_Storage" = type { i32 }
%"class.WasmEdge::AST::ElementSection" = type { %"class.WasmEdge::AST::Section", %"class.std::vector.100" }
%"class.std::vector.100" = type { %"struct.std::_Vector_base.101" }
%"struct.std::_Vector_base.101" = type { %"struct.std::_Vector_base<WasmEdge::AST::ElementSegment, std::allocator<WasmEdge::AST::ElementSegment>>::_Vector_impl" }
%"struct.std::_Vector_base<WasmEdge::AST::ElementSegment, std::allocator<WasmEdge::AST::ElementSegment>>::_Vector_impl" = type { %"struct.std::_Vector_base<WasmEdge::AST::ElementSegment, std::allocator<WasmEdge::AST::ElementSegment>>::_Vector_impl_data" }
%"struct.std::_Vector_base<WasmEdge::AST::ElementSegment, std::allocator<WasmEdge::AST::ElementSegment>>::_Vector_impl_data" = type { ptr, ptr, ptr }
%"class.WasmEdge::AST::CodeSection" = type { %"class.WasmEdge::AST::Section", %"class.std::vector.105" }
%"class.std::vector.105" = type { %"struct.std::_Vector_base.106" }
%"struct.std::_Vector_base.106" = type { %"struct.std::_Vector_base<WasmEdge::AST::CodeSegment, std::allocator<WasmEdge::AST::CodeSegment>>::_Vector_impl" }
%"struct.std::_Vector_base<WasmEdge::AST::CodeSegment, std::allocator<WasmEdge::AST::CodeSegment>>::_Vector_impl" = type { %"struct.std::_Vector_base<WasmEdge::AST::CodeSegment, std::allocator<WasmEdge::AST::CodeSegment>>::_Vector_impl_data" }
%"struct.std::_Vector_base<WasmEdge::AST::CodeSegment, std::allocator<WasmEdge::AST::CodeSegment>>::_Vector_impl_data" = type { ptr, ptr, ptr }
%"class.WasmEdge::AST::DataSection" = type { %"class.WasmEdge::AST::Section", %"class.std::vector.110" }
%"class.std::vector.110" = type { %"struct.std::_Vector_base.111" }
%"struct.std::_Vector_base.111" = type { %"struct.std::_Vector_base<WasmEdge::AST::DataSegment, std::allocator<WasmEdge::AST::DataSegment>>::_Vector_impl" }
%"struct.std::_Vector_base<WasmEdge::AST::DataSegment, std::allocator<WasmEdge::AST::DataSegment>>::_Vector_impl" = type { %"struct.std::_Vector_base<WasmEdge::AST::DataSegment, std::allocator<WasmEdge::AST::DataSegment>>::_Vector_impl_data" }
%"struct.std::_Vector_base<WasmEdge::AST::DataSegment, std::allocator<WasmEdge::AST::DataSegment>>::_Vector_impl_data" = type { ptr, ptr, ptr }
%"class.WasmEdge::AST::DataCountSection" = type { %"class.WasmEdge::AST::Section", %"class.std::optional" }
%"class.WasmEdge::AST::TagSection" = type { %"class.WasmEdge::AST::Section", %"class.std::vector.115" }
%"class.std::vector.115" = type { %"struct.std::_Vector_base.116" }
%"struct.std::_Vector_base.116" = type { %"struct.std::_Vector_base<WasmEdge::AST::TagType, std::allocator<WasmEdge::AST::TagType>>::_Vector_impl" }
%"struct.std::_Vector_base<WasmEdge::AST::TagType, std::allocator<WasmEdge::AST::TagType>>::_Vector_impl" = type { %"struct.std::_Vector_base<WasmEdge::AST::TagType, std::allocator<WasmEdge::AST::TagType>>::_Vector_impl_data" }
%"struct.std::_Vector_base<WasmEdge::AST::TagType, std::allocator<WasmEdge::AST::TagType>>::_Vector_impl_data" = type { ptr, ptr, ptr }
%"class.WasmEdge::AST::AOTSection" = type { i32, i8, i8, i64, i64, %"class.std::vector", %"class.std::vector", %"class.std::vector.120", %"class.std::vector.55" }
%"class.std::vector.120" = type { %"struct.std::_Vector_base.121" }
%"struct.std::_Vector_base.121" = type { %"struct.std::_Vector_base<std::tuple<unsigned char, unsigned long, unsigned long, std::vector<unsigned char>>, std::allocator<std::tuple<unsigned char, unsigned long, unsigned long, std::vector<unsigned char>>>>::_Vector_impl" }
%"struct.std::_Vector_base<std::tuple<unsigned char, unsigned long, unsigned long, std::vector<unsigned char>>, std::allocator<std::tuple<unsigned char, unsigned long, unsigned long, std::vector<unsigned char>>>>::_Vector_impl" = type { %"struct.std::_Vector_base<std::tuple<unsigned char, unsigned long, unsigned long, std::vector<unsigned char>>, std::allocator<std::tuple<unsigned char, unsigned long, unsigned long, std::vector<unsigned char>>>>::_Vector_impl_data" }
%"struct.std::_Vector_base<std::tuple<unsigned char, unsigned long, unsigned long, std::vector<unsigned char>>, std::allocator<std::tuple<unsigned char, unsigned long, unsigned long, std::vector<unsigned char>>>>::_Vector_impl_data" = type { ptr, ptr, ptr }
%"class.WasmEdge::Symbol" = type { %"class.std::shared_ptr", ptr }
%"class.std::shared_ptr" = type { %"class.std::__shared_ptr" }
%"class.std::__shared_ptr" = type { ptr, %"class.std::__shared_count" }
%"class.std::__shared_count" = type { ptr }

; Function Attrs: mustprogress nounwind uwtable
define linkonce_odr hidden noundef ptr @_ZNKSt6vectorIN8WasmEdge3AST10ImportDescESaIS2_EE11_M_data_ptrIS2_EEPT_S7_(ptr noundef nonnull align 8 dereferenceable(24) %0, ptr noundef %1) #0 comdat align 2 {
  %3 = alloca ptr, align 8
  %4 = alloca ptr, align 8
  store ptr %0, ptr %3, align 8
  store ptr %1, ptr %4, align 8
  %5 = load ptr, ptr %4, align 8
  ret ptr %5
}

; Function Attrs: mustprogress nounwind uwtable
define linkonce_odr hidden noundef i64 @_ZNKSt6vectorIN8WasmEdge3AST10ImportDescESaIS2_EE4sizeEv(ptr noundef nonnull align 8 dereferenceable(24) %0) #0 comdat align 2 {
  %2 = alloca ptr, align 8
  store ptr %0, ptr %2, align 8
  %3 = load ptr, ptr %2, align 8
  %4 = getelementptr inbounds %"struct.std::_Vector_base.71", ptr %3, i32 0, i32 0
  %5 = getelementptr inbounds %"struct.std::_Vector_base<WasmEdge::AST::ImportDesc, std::allocator<WasmEdge::AST::ImportDesc>>::_Vector_impl_data", ptr %4, i32 0, i32 1
  %6 = load ptr, ptr %5, align 8
  %7 = getelementptr inbounds %"struct.std::_Vector_base.71", ptr %3, i32 0, i32 0
  %8 = getelementptr inbounds %"struct.std::_Vector_base<WasmEdge::AST::ImportDesc, std::allocator<WasmEdge::AST::ImportDesc>>::_Vector_impl_data", ptr %7, i32 0, i32 0
  %9 = load ptr, ptr %8, align 8
  %10 = ptrtoint ptr %6 to i64
  %11 = ptrtoint ptr %9 to i64
  %12 = sub i64 %10, %11
  %13 = sdiv exact i64 %12, 136
  ret i64 %13
}

; Function Attrs: mustprogress nounwind uwtable
define linkonce_odr hidden noundef ptr @_ZNKSt6vectorIN8WasmEdge3AST10ImportDescESaIS2_EE4dataEv(ptr noundef nonnull align 8 dereferenceable(24) %0) #0 comdat align 2 {
  %2 = alloca ptr, align 8
  store ptr %0, ptr %2, align 8
  %3 = load ptr, ptr %2, align 8
  %4 = getelementptr inbounds %"struct.std::_Vector_base.71", ptr %3, i32 0, i32 0
  %5 = getelementptr inbounds %"struct.std::_Vector_base<WasmEdge::AST::ImportDesc, std::allocator<WasmEdge::AST::ImportDesc>>::_Vector_impl_data", ptr %4, i32 0, i32 0
  %6 = load ptr, ptr %5, align 8
  %7 = call noundef ptr @_ZNKSt6vectorIN8WasmEdge3AST10ImportDescESaIS2_EE11_M_data_ptrIS2_EEPT_S7_(ptr noundef nonnull align 8 dereferenceable(24) %3, ptr noundef %6) #18
  ret ptr %7
}

; Function Attrs: mustprogress nounwind uwtable
define linkonce_odr hidden void @_ZN5cxx206detail12span_storageIKN8WasmEdge3AST10ImportDescELm18446744073709551615EEC2EPS5_m(ptr noundef nonnull align 8 dereferenceable(16) %0, ptr noundef %1, i64 noundef %2) unnamed_addr #0 comdat align 2 {
  %4 = alloca ptr, align 8
  %5 = alloca ptr, align 8
  %6 = alloca i64, align 8
  store ptr %0, ptr %4, align 8
  store ptr %1, ptr %5, align 8
  store i64 %2, ptr %6, align 8
  %7 = load ptr, ptr %4, align 8
  %8 = getelementptr inbounds %"class.cxx20::detail::span_storage.54", ptr %7, i32 0, i32 0
  %9 = load ptr, ptr %5, align 8
  store ptr %9, ptr %8, align 8
  %10 = getelementptr inbounds %"class.cxx20::detail::span_storage.54", ptr %7, i32 0, i32 1
  %11 = load i64, ptr %6, align 8
  store i64 %11, ptr %10, align 8
  ret void
}

; Function Attrs: mustprogress nounwind uwtable
define linkonce_odr noundef i64 @_ZSt4sizeISt6vectorIN8WasmEdge3AST10ImportDescESaIS3_EEEDTcldtfp_4sizeEERKT_(ptr noundef nonnull align 8 dereferenceable(24) %0) #0 comdat {
  %2 = alloca ptr, align 8
  store ptr %0, ptr %2, align 8
  %3 = load ptr, ptr %2, align 8
  %4 = call noundef i64 @_ZNKSt6vectorIN8WasmEdge3AST10ImportDescESaIS2_EE4sizeEv(ptr noundef nonnull align 8 dereferenceable(24) %3) #18
  ret i64 %4
}

; Function Attrs: mustprogress nounwind uwtable
define linkonce_odr noundef ptr @_ZSt4dataISt6vectorIN8WasmEdge3AST10ImportDescESaIS3_EEEDTcldtfp_4dataEERKT_(ptr noundef nonnull align 8 dereferenceable(24) %0) #0 comdat {
  %2 = alloca ptr, align 8
  store ptr %0, ptr %2, align 8
  %3 = load ptr, ptr %2, align 8
  %4 = call noundef ptr @_ZNKSt6vectorIN8WasmEdge3AST10ImportDescESaIS2_EE4dataEv(ptr noundef nonnull align 8 dereferenceable(24) %3) #18
  ret ptr %4
}

; Function Attrs: noreturn nounwind uwtable
define linkonce_odr hidden void @__clang_call_terminate(ptr noundef %0) #10 comdat {
  %2 = call ptr @__cxa_begin_catch(ptr %0) #18
  call void @_ZSt9terminatev() #19
  unreachable
}

; Function Attrs: mustprogress nounwind uwtable
define linkonce_odr hidden void @_ZN5cxx204spanIKN8WasmEdge3AST10ImportDescELm18446744073709551615EEC2IRKSt6vectorIS3_SaIS3_EETnPNSt9enable_ifIXaasr6detailE18is_generic_range_vIT_Esr6detailE21is_compatible_range_vIS4_SD_EEvE4typeELPv0EEEOSD_(ptr noundef nonnull align 8 dereferenceable(16) %0, ptr noundef nonnull align 8 dereferenceable(24) %1) unnamed_addr #0 comdat align 2 {
  %3 = alloca ptr, align 8
  %4 = alloca ptr, align 8
  store ptr %0, ptr %3, align 8
  store ptr %1, ptr %4, align 8
  %5 = load ptr, ptr %3, align 8
  %6 = load ptr, ptr %4, align 8
  %7 = call noundef ptr @_ZSt4dataISt6vectorIN8WasmEdge3AST10ImportDescESaIS3_EEEDTcldtfp_4dataEERKT_(ptr noundef nonnull align 8 dereferenceable(24) %6) #18
  %8 = load ptr, ptr %4, align 8
  %9 = call noundef i64 @_ZSt4sizeISt6vectorIN8WasmEdge3AST10ImportDescESaIS3_EEEDTcldtfp_4sizeEERKT_(ptr noundef nonnull align 8 dereferenceable(24) %8) #18
  call void @_ZN5cxx206detail12span_storageIKN8WasmEdge3AST10ImportDescELm18446744073709551615EEC2EPS5_m(ptr noundef nonnull align 8 dereferenceable(16) %5, ptr noundef %7, i64 noundef %9) #18
  ret void
}

; Function Attrs: mustprogress nounwind uwtable
define linkonce_odr hidden noundef i64 @_ZNK5cxx206detail12span_storageIKN8WasmEdge3AST10ImportDescELm18446744073709551615EE4sizeEv(ptr noundef nonnull align 8 dereferenceable(16) %0) #0 comdat align 2 {
  %2 = alloca ptr, align 8
  store ptr %0, ptr %2, align 8
  %3 = load ptr, ptr %2, align 8
  %4 = getelementptr inbounds %"class.cxx20::detail::span_storage.54", ptr %3, i32 0, i32 1
  %5 = load i64, ptr %4, align 8
  ret i64 %5
}

; Function Attrs: mustprogress nounwind uwtable
define linkonce_odr hidden { ptr, i64 } @_ZNK8WasmEdge3AST13ImportSection10getContentEv(ptr noundef nonnull align 8 dereferenceable(40) %0) #0 comdat align 2 personality ptr @__gxx_personality_v0 {
  %2 = alloca %"struct.cxx20::span.53", align 8
  %3 = alloca ptr, align 8
  store ptr %0, ptr %3, align 8
  %4 = load ptr, ptr %3, align 8
  %5 = getelementptr inbounds %"class.WasmEdge::AST::ImportSection", ptr %4, i32 0, i32 1
  invoke void @_ZN5cxx204spanIKN8WasmEdge3AST10ImportDescELm18446744073709551615EEC2IRKSt6vectorIS3_SaIS3_EETnPNSt9enable_ifIXaasr6detailE18is_generic_range_vIT_Esr6detailE21is_compatible_range_vIS4_SD_EEvE4typeELPv0EEEOSD_(ptr noundef nonnull align 8 dereferenceable(16) %2, ptr noundef nonnull align 8 dereferenceable(24) %5)
          to label %6 unwind label %9

6:                                                ; preds = %1
  %7 = getelementptr inbounds %"struct.cxx20::span.53", ptr %2, i32 0, i32 0
  %8 = load { ptr, i64 }, ptr %7, align 8
  ret { ptr, i64 } %8

9:                                                ; preds = %1
  %10 = landingpad { ptr, i32 }
          catch ptr null
  %11 = extractvalue { ptr, i32 } %10, 0
  call void @__clang_call_terminate(ptr %11) #19
  unreachable
}

; Function Attrs: mustprogress nounwind uwtable
define linkonce_odr hidden noundef nonnull align 8 dereferenceable(40) ptr @_ZNK8WasmEdge3AST6Module16getImportSectionEv(ptr noundef nonnull align 8 dereferenceable(705) %0) #0 comdat align 2 {
  %2 = alloca ptr, align 8
  store ptr %0, ptr %2, align 8
  %3 = load ptr, ptr %2, align 8
  %4 = getelementptr inbounds %"class.WasmEdge::AST::Module", ptr %3, i32 0, i32 4
  ret ptr %4
}

; Function Attrs: mustprogress nounwind uwtable
define internal noundef ptr @_ZN12_GLOBAL__N_113fromASTModCxtEPK25WasmEdge_ASTModuleContext(ptr noundef %0) #0 {
  %2 = alloca ptr, align 8
  store ptr %0, ptr %2, align 8
  %3 = load ptr, ptr %2, align 8
  ret ptr %3
}

; Function Attrs: mustprogress uwtable
define i32 @WasmEdge_ASTModuleListImportsLength(ptr noundef %0) #1 {
  %2 = alloca i32, align 4
  %3 = alloca ptr, align 8
  %4 = alloca %"struct.cxx20::span.53", align 8
  store ptr %0, ptr %3, align 8
  %5 = load ptr, ptr %3, align 8
  %6 = icmp ne ptr %5, null
  br i1 %6, label %7, label %19

7:                                                ; preds = %1
  %8 = load ptr, ptr %3, align 8
  %9 = call noundef ptr @_ZN12_GLOBAL__N_113fromASTModCxtEPK25WasmEdge_ASTModuleContext(ptr noundef %8) #18
  %10 = call noundef nonnull align 8 dereferenceable(40) ptr @_ZNK8WasmEdge3AST6Module16getImportSectionEv(ptr noundef nonnull align 8 dereferenceable(705) %9)
  %11 = call { ptr, i64 } @_ZNK8WasmEdge3AST13ImportSection10getContentEv(ptr noundef nonnull align 8 dereferenceable(40) %10) #18
  %12 = getelementptr inbounds %"struct.cxx20::span.53", ptr %4, i32 0, i32 0
  %13 = getelementptr inbounds { ptr, i64 }, ptr %12, i32 0, i32 0
  %14 = extractvalue { ptr, i64 } %11, 0
  store ptr %14, ptr %13, align 8
  %15 = getelementptr inbounds { ptr, i64 }, ptr %12, i32 0, i32 1
  %16 = extractvalue { ptr, i64 } %11, 1
  store i64 %16, ptr %15, align 8
  %17 = call noundef i64 @_ZNK5cxx206detail12span_storageIKN8WasmEdge3AST10ImportDescELm18446744073709551615EE4sizeEv(ptr noundef nonnull align 8 dereferenceable(16) %4) #18
  %18 = trunc i64 %17 to i32
  store i32 %18, ptr %2, align 4
  br label %20

19:                                               ; preds = %1
  store i32 0, ptr %2, align 4
  br label %20

20:                                               ; preds = %19, %7
  %21 = load i32, ptr %2, align 4
  ret i32 %21
}