; Function Attrs: mustprogress nofree norecurse nosync nounwind willreturn memory(argmem: read) uwtable
define i32 @WasmEdge_ASTModuleListImportsLength(ptr noundef readonly %0) local_unnamed_addr #4 personality ptr @__gxx_personality_v0 {
  %.not = icmp eq ptr %0, null
  br i1 %.not, label %12, label %2

2:                                                ; preds = %1
  %3 = getelementptr inbounds i8, ptr %0, i64 128
  %4 = load ptr, ptr %3, align 8
  %5 = getelementptr inbounds i8, ptr %0, i64 136
  %6 = load ptr, ptr %5, align 8
  %7 = ptrtoint ptr %6 to i64
  %8 = ptrtoint ptr %4 to i64
  %9 = sub i64 %7, %8
  %10 = sdiv exact i64 %9, 136
  %11 = trunc i64 %10 to i32
  br label %12

12:                                               ; preds = %1, %2
  %.0 = phi i32 [ %11, %2 ], [ 0, %1 ]
  ret i32 %.0
}